target datalayout = "e-m:e-p270:32:32-p271:32:32-p272:64:64-i64:64-i128:128-f80:128-n8:16:32:64-S128"
target triple = "x86_64-pc-linux-gnu"

%struct.location = type { i32, i32 }
%struct.block = type { ptr, ptr }
%struct.inst = type { ptr, ptr, i32, %struct.anon, ptr, %struct.location, ptr, ptr, i32, i32, i32, i32, %struct.block, %struct.block, ptr, i32 }
%struct.anon = type { i16, ptr, %struct.jv, ptr }
%struct.jv = type { i8, i8, i16, i32, %union.anon }
%union.anon = type { ptr }

; Function Attrs: nounwind uwtable
define dso_local i32 @block_is_single(ptr %0, ptr %1) #0 {
  %3 = alloca %struct.block, align 8
  %4 = getelementptr inbounds nuw { ptr, ptr }, ptr %3, i32 0, i32 0
  store ptr %0, ptr %4, align 8
  %5 = getelementptr inbounds nuw { ptr, ptr }, ptr %3, i32 0, i32 1
  store ptr %1, ptr %5, align 8
  %6 = getelementptr inbounds nuw %struct.block, ptr %3, i32 0, i32 0
  %7 = load ptr, ptr %6, align 8, !tbaa !4
  %8 = icmp ne ptr %7, null
  br i1 %8, label %9, label %15

9:                                                ; preds = %2
  %10 = getelementptr inbounds nuw %struct.block, ptr %3, i32 0, i32 0
  %11 = load ptr, ptr %10, align 8, !tbaa !4
  %12 = getelementptr inbounds nuw %struct.block, ptr %3, i32 0, i32 1
  %13 = load ptr, ptr %12, align 8, !tbaa !10
  %14 = icmp eq ptr %11, %13
  br label %15

15:                                               ; preds = %9, %2
  %16 = phi i1 [ false, %2 ], [ %14, %9 ]
  %17 = zext i1 %16 to i32
  ret i32 %17
}

; Function Attrs: nounwind uwtable
define dso_local i32 @block_is_const(ptr %0, ptr %1) #0 {
  %3 = alloca %struct.block, align 8
  %4 = getelementptr inbounds nuw { ptr, ptr }, ptr %3, i32 0, i32 0
  store ptr %0, ptr %4, align 8
  %5 = getelementptr inbounds nuw { ptr, ptr }, ptr %3, i32 0, i32 1
  store ptr %1, ptr %5, align 8
  %6 = getelementptr inbounds nuw { ptr, ptr }, ptr %3, i32 0, i32 0
  %7 = load ptr, ptr %6, align 8
  %8 = getelementptr inbounds nuw { ptr, ptr }, ptr %3, i32 0, i32 1
  %9 = load ptr, ptr %8, align 8
  %10 = call i32 @block_is_single(ptr %7, ptr %9)
  %11 = icmp ne i32 %10, 0
  br i1 %11, label %12, label %26

12:                                               ; preds = %2
  %13 = getelementptr inbounds nuw %struct.block, ptr %3, i32 0, i32 0
  %14 = load ptr, ptr %13, align 8, !tbaa !4
  %15 = getelementptr inbounds nuw %struct.inst, ptr %14, i32 0, i32 2
  %16 = load i32, ptr %15, align 8, !tbaa !33
  %17 = icmp eq i32 %16, 0
  br i1 %17, label %24, label %18

18:                                               ; preds = %12
  %19 = getelementptr inbounds nuw %struct.block, ptr %3, i32 0, i32 0
  %20 = load ptr, ptr %19, align 8, !tbaa !4
  %21 = getelementptr inbounds nuw %struct.inst, ptr %20, i32 0, i32 2
  %22 = load i32, ptr %21, align 8, !tbaa !33
  %23 = icmp eq i32 %22, 4
  br label %24

24:                                               ; preds = %18, %12
  %25 = phi i1 [ true, %12 ], [ %23, %18 ]
  br label %26

26:                                               ; preds = %24, %2
  %27 = phi i1 [ false, %2 ], [ %25, %24 ]
  %28 = zext i1 %27 to i32
  ret i32 %28
}