; Function Attrs: mustprogress nofree norecurse nosync nounwind willreturn memory(argmem: read) uwtable
define dso_local range(i32 0, 2) i32 @block_is_const(ptr readonly captures(address) %0, ptr readnone captures(address) %1) local_unnamed_addr #7 {
  %3 = icmp eq ptr %0, null
  %4 = icmp ne ptr %0, %1
  %.not5 = select i1 %3, i1 true, i1 %4
  br i1 %.not5, label %12, label %5

5:                                                ; preds = %2
  %6 = getelementptr inbounds nuw i8, ptr %0, i64 16
  %7 = load i32, ptr %6, align 8, !tbaa !25
  %8 = icmp eq i32 %7, 0
  br i1 %8, label %12, label %9

9:                                                ; preds = %5
  %10 = icmp eq i32 %7, 4
  %11 = zext i1 %10 to i32
  br label %12

12:                                               ; preds = %5, %9, %2
  %13 = phi i32 [ 0, %2 ], [ 1, %5 ], [ %11, %9 ]
  ret i32 %13
}